; Function Attrs: mustprogress nounwind uwtable
define internal fastcc void @_ZN5clang19RecursiveASTVisitorIN12_GLOBAL__N_111TypeIndexerEE21VisitOMPAlignedClauseEPNS_16OMPAlignedClauseE(ptr noundef nonnull readonly align 1 captures(none) dereferenceable(1) %0, ptr noundef nonnull readonly %1) unnamed_addr #0 align 2 {
  %3 = getelementptr inbounds nuw i8, ptr %1, i64 24
  %4 = getelementptr inbounds nuw i8, ptr %1, i64 16
  %5 = load i32, ptr %4, align 4
  %6 = zext i32 %5 to i64
  %7 = getelementptr inbounds nuw ptr, ptr %3, i64 %6
  %8 = load ptr, ptr %7, align 8
  %9 = load ptr, ptr %0, align 8
  %10 = getelementptr inbounds nuw i8, ptr %0, i64 8
  %11 = load ptr, ptr %10, align 8
  %12 = getelementptr inbounds nuw i8, ptr %0, i64 16
  %13 = load ptr, ptr %12, align 8
  tail call void @_ZN5clang5index15IndexingContext9indexBodyEPKNS_4StmtEPKNS_9NamedDeclEPKNS_11DeclContextE(ptr noundef nonnull align 8 dereferenceable(64) %9, ptr noundef %8, ptr noundef %11, ptr noundef %13) #13
  %14 = load i32, ptr %4, align 4
  %15 = zext i32 %14 to i64
  %.idx.i = shl nuw nsw i64 %15, 3
  %16 = getelementptr inbounds nuw i8, ptr %1, i64 %.idx.i
  %.ptr13.i = getelementptr inbounds nuw i8, ptr %16, i64 24
  %.not11.i = icmp eq i32 %14, 0
  br i1 %.not11.i, label %_ZN5clang19RecursiveASTVisitorIN12_GLOBAL__N_111TypeIndexerEE18VisitOMPClauseListINS_16OMPAlignedClauseEEEbPT_.exit, label %.lr.ph.i

.lr.ph.i:                                         ; preds = %2, %.lr.ph.i
  %.01012.i = phi ptr [ %21, %.lr.ph.i ], [ %3, %2 ]
  %17 = load ptr, ptr %.01012.i, align 8
  %18 = load ptr, ptr %0, align 8
  %19 = load ptr, ptr %10, align 8
  %20 = load ptr, ptr %12, align 8
  tail call void @_ZN5clang5index15IndexingContext9indexBodyEPKNS_4StmtEPKNS_9NamedDeclEPKNS_11DeclContextE(ptr noundef nonnull align 8 dereferenceable(64) %18, ptr noundef %17, ptr noundef %19, ptr noundef %20) #13
  %21 = getelementptr inbounds nuw i8, ptr %.01012.i, i64 8
  %.not.i = icmp eq ptr %21, %.ptr13.i
  br i1 %.not.i, label %_ZN5clang19RecursiveASTVisitorIN12_GLOBAL__N_111TypeIndexerEE18VisitOMPClauseListINS_16OMPAlignedClauseEEEbPT_.exit, label %.lr.ph.i

_ZN5clang19RecursiveASTVisitorIN12_GLOBAL__N_111TypeIndexerEE18VisitOMPClauseListINS_16OMPAlignedClauseEEEbPT_.exit: ; preds = %.lr.ph.i, %2
  ret void
}